Certificate:
    Data:
        Version: 3 (0x2)
        Serial Number: 1234567890 (0x499602d2)
        Signature Algorithm: sha256WithRSAEncryption
        Issuer: CN = ca.example.com
        Validity
            Not Before: Jul 31 12:05:32 2024 GMT
            Not After : Jul 31 12:05:32 2025 GMT
        Subject: CN = test.example.com
        Subject Public Key Info:
            Public Key Algorithm: rsaEncryption
                RSA Public-Key: (2048 bit)
                Modulus:
                    00:ed:8c:02:e0:36:b2:93:86:0e:1f:c3:86:3f:02:
                    0f:42:ef:2f:2a:11:05:85:55:a4:1e:33:ea:a9:bf:
                    4b:f1:6e:01:2e:fc:3b:21:9e:35:3e:55:41:8d:0a:
                    53:24:7d:4d:5f:b5:4c:2a:65:d4:3a:23:c6:a5:4c:
                    56:dc:37:17:df:09:df:a5:0b:e8:66:63:19:5e:02:
                    3f:b9:4a:49:e8:c0:3c:3e:02:87:cf:0c:91:2f:bc:
                    b2:ce:0b:ed:cb:d1:b4:cb:38:02:19:61:00:93:a6:
                    7f:c4:07:27:7e:2b:ad:16:fb:2f:cb:12:0c:4d:98:
                    b9:dc:de:17:25:f4:56:01:47:4a:47:d2:47:eb:53:
                    e7:50:9e:68:da:98:d4:5a:be:38:f6:1c:8f:f8:d2:
                    86:bd:ae:97:0c:33:e8:0d:01:aa:fc:b6:d9:1c:92:
                    bc:3e:32:82:03:49:cd:81:0c:51:2d:c2:41:d7:4d:
                    a0:d0:da:40:d6:84:2f:5d:a4:55:bc:cf:8d:e5:8b:
                    06:29:d8:1b:56:eb:a9:49:3a:18:53:1c:d7:93:67:
                    dc:0c:45:86:0b:92:20:f9:c1:af:12:21:dd:ee:d1:
                    4e:d2:0a:59:8f:49:7d:cb:6e:80:09:6f:a5:e6:01:
                    2f:1f:4c:70:01:2b:28:73:bd:bc:ac:15:9a:e5:a1:
                    9b:7f
                Exponent: 65537 (0x10001)
        X509v3 extensions:
            X509v3 Subject Key Identifier: 
                EB:87:7C:15:77:2B:5B:99:77:C1:DD:C1:3F:78:CD:F0:B6:CF:48:0A
            X509v3 Authority Key Identifier: 
                keyid:EB:87:7C:15:77:2B:5B:99:77:C1:DD:C1:3F:78:CD:F0:B6:CF:48:0A

            X509v3 Basic Constraints: critical
                CA:TRUE
    Signature Algorithm: sha256WithRSAEncryption
         99:ff:f0:4b:b2:44:1d:98:63:d8:96:17:c4:20:75:07:f8:95:
         16:63:ca:12:88:99:c4:30:ed:23:a3:c9:ef:71:5e:27:3d:ff:
         4f:b8:e5:59:1d:dd:24:ec:26:07:42:d1:64:02:05:02:94:c0:
         d0:fe:ce:ca:d9:dd:bb:0d:77:42:b4:18:60:3e:3d:e1:38:c7:
         9c:26:2d:4f:f0:2c:e2:37:ce:f5:d0:dc:ff:c4:92:3a:41:88:
         8f:a2:9c:38:61:9d:fc:3b:a3:c1:55:fe:90:51:b0:59:dc:df:
         84:62:48:40:11:e3:4b:41:bd:37:b8:7b:98:60:a7:37:16:54:
         a3:29:8f:bb:c0:49:9f:f0:e3:df:76:79:df:41:c1:a7:bb:90:
         6f:b0:24:b1:28:79:bc:e8:49:75:a3:5a:22:b3:5e:e6:ae:3a:
         df:d3:a0:c2:d4:17:5d:08:a3:54:3b:1a:24:e1:96:3d:2b:1f:
         e0:1d:b8:66:e9:d8:8c:7b:6c:15:12:6f:fd:4c:50:48:0f:b0:
         df:34:52:44:c6:f1:52:35:ed:fc:31:34:1a:eb:10:d3:ce:82:
         9e:a7:d6:32:46:64:44:6f:c2:3c:6d:a0:97:75:e7:68:c0:d6:
         3b:7a:1d:ef:f4:4f:70:cf:50:c4:8d:eb:8f:9c:db:ad:72:9b:
         77:d1:65:67:57:c8:27:60:1e:89:15:d9:2d:82:2b:11:ab:ae:
         99:fe:6c:3c:ac:98:72:2c:2a:73:f9:68:e8:f1:88:c3:d6:ff:
         5f:cf:1b:12:61:1d:50:f1:c0:6d:68:6c:8b:cd:61:75:82:34:
         97:4b:c8:42:91:3d:5f:00:c8:0b:89:a7:a6:72:ce:bb:ee:1f:
         94:5a:c2:95:28:42:d0:50:8a:26:84:9b:2f:72:41:1a:ac:b6:
         f3:5d:62:47:f1:86:73:20:a8:de:67:cd:fa:35:6a:df:be:4a:
         43:98:0c:30:10:14:7d:3e:17:df:f0:ce:7d:d0:fd:e7:8c:69:
         b8:21:09:53:5e:d9:64:7b:74:47:e6:f3:f1:8d:0a:a5:35:61:
         af:9a:90:62:22:d3:a7:61:b7:6b:32:03:52:81:e5:1d:87:d0:
         83:aa:97:fa:8f:8f:e5:25:a6:b0:a7:13:1a:77:71:14:71:7c:
         21:8b:fd:ef:22:2c:56:38:ad:e1:13:81:62:d1:ba:a7:94:4c:
         1c:95:36:64:71:6b:e0:b3:25:e9:fa:87:e1:90:57:a0:6b:14:
         3a:0f:00:fd:6c:2a:4d:01:81:30:20:04:a1:25:1f:9f:b8:0e:
         6a:8e:72:9e:28:e7:13:21:6d:bc:b9:d3:24:cb:3f:da:04:82:
         bf:53:36:6b:7b:ac:2d:8b
-----BEGIN CERTIFICATE-----
MIIEBTCCAe2gAwIBAgIESZYC0jANBgkqhkiG9w0BAQsFADAZMRcwFQYDVQQDDA5j
YS5leGFtcGxlLmNvbTAeFw0yNDA3MzExMjA1MzJaFw0yNTA3MzExMjA1MzJaMBsx
GTAXBgNVBAMMEHRlc3QuZXhhbXBsZS5jb20wggEiMA0GCSqGSIb3DQEBAQUAA4IB
DwAwggEKAoIBAQDtjALgNrKThg4fw4Y/Ag9C7y8qEQWFVaQeM+qpv0vxbgEu/Dsh
njU+VUGNClMkfU1ftUwqZdQ6I8alTFbcNxffCd+lC+hmYxleAj+5SknowDw+AofP
DJEvvLLOC+3L0bTLOAIZYQCTpn/EByd+K60W+y/LEgxNmLnc3hcl9FYBR0pH0kfr
U+dQnmjamNRavjj2HI/40oa9rpcMM+gNAar8ttkckrw+MoIDSc2BDFEtwkHXTaDQ
2kDWhC9dpFW8z43liwYp2BtW66lJOhhTHNeTZ9wMRYYLkiD5wa8SId3u0U7SClmP
SX3LboAJb6XmAS8fTHABKyhzvbysFZrloZt/AgMBAAGjUzBRMB0GA1UdDgQWBBTr
h3wVdytbmXfB3cE/eM3wts9ICjAfBgNVHSMEGDAWgBTrh3wVdytbmXfB3cE/eM3w
ts9ICjAPBgNVHRMBAf8EBTADAQH/MA0GCSqGSIb3DQEBCwUAA4ICAQCZ//BLskQd
mGPYlhfEIHUH+JUWY8oSiJnEMO0jo8nvcV4nPf9PuOVZHd0k7CYHQtFkAgUClMDQ
/s7K2d27DXdCtBhgPj3hOMecJi1P8CziN8710Nz/xJI6QYiPopw4YZ38O6PBVf6Q
UbBZ3N+EYkhAEeNLQb03uHuYYKc3FlSjKY+7wEmf8OPfdnnfQcGnu5BvsCSxKHm8
6El1o1ois17mrjrf06DC1BddCKNUOxok4ZY9Kx/gHbhm6diMe2wVEm/9TFBID7Df
NFJExvFSNe38MTQa6xDTzoKep9YyRmREb8I8baCXdedowNY7eh3v9E9wz1DEjeuP
nNutcpt30WVnV8gnYB6JFdktgisRq66Z/mw8rJhyLCpz+Wjo8YjD1v9fzxsSYR1Q
8cBtaGyLzWF1gjSXS8hCkT1fAMgLiaemcs677h+UWsKVKELQUIomhJsvckEarLbz
XWJH8YZzIKjeZ836NWrfvkpDmAwwEBR9Phff8M590P3njGm4IQlTXtlke3RH5vPx
jQqlNWGvmpBiItOnYbdrMgNSgeUdh9CDqpf6j4/lJaawpxMad3EUcXwhi/3vIixW
OK3hE4Fi0bqnlEwclTZkcWvgsyXp+ofhkFegaxQ6DwD9bCpNAYEwIAShJR+fuA5q
jnKeKOcTIW28udMkyz/aBIK/UzZre6wtiw==
-----END CERTIFICATE-----
