Certificate:
    Data:
        Version: 1 (0x0)
        Serial Number:
            4d:3d:ec:b1:ae:ba:48:7c:e4:d9:85:c1:3c:74:b1:ef:61:70:3e:3e
        Signature Algorithm: NULL
        Issuer: CN = ca.example.com
        Validity
            Not Before: Jul 31 12:05:32 2024 GMT
            Not After : Aug 30 12:05:32 2024 GMT
        Subject: CN = b.example.com
        Subject Public Key Info:
            Public Key Algorithm: rsaEncryption
                RSA Public-Key: (4096 bit)
                Modulus:
                    00:b0:86:e9:36:4f:35:f5:4f:c1:e8:e0:3b:e0:a8:
                    a7:0e:44:da:1f:c8:33:92:e3:e3:85:43:e8:60:3c:
                    17:52:42:b3:eb:0f:7c:67:4f:ff:8e:10:f5:03:ce:
                    3d:cb:3c:8c:f4:69:7e:50:d8:8d:f5:94:dc:ac:5e:
                    b6:2f:a9:18:bc:b5:21:e9:8e:c8:bc:5b:7b:32:b1:
                    f1:aa:05:a9:1a:00:db:54:ee:5a:c3:ce:7e:b7:eb:
                    5b:4f:6e:2b:00:e8:b2:30:83:98:22:bc:30:f5:96:
                    ad:75:f1:ca:b8:40:b0:ae:18:9b:17:54:c9:02:5c:
                    35:a8:b0:a2:61:c2:93:46:5c:5e:2c:b5:b6:8a:65:
                    34:99:33:83:dd:51:37:23:43:c6:7e:3b:68:d7:f8:
                    db:80:b3:9c:ad:17:7f:1f:f1:49:e8:0b:f4:05:e8:
                    11:f8:cf:c7:07:9d:6d:42:db:ee:c2:a1:43:77:4a:
                    c6:bf:ba:56:95:ce:63:60:34:f3:01:5c:8a:0c:20:
                    95:09:00:17:fe:dc:8a:af:2b:45:06:e2:1d:ed:d3:
                    17:19:4f:b2:82:b1:d8:f8:e0:f2:16:9e:5b:24:7a:
                    e8:90:67:15:28:9a:2f:f9:ce:0e:c2:b1:6c:5b:50:
                    85:2c:a7:d2:11:3d:de:1c:4f:34:7f:b7:58:bb:97:
                    97:06:32:cd:5b:14:2e:c1:7f:2b:e2:73:0f:c5:c8:
                    ae:66:eb:67:ae:b6:83:3b:d5:b1:5b:eb:cc:a8:42:
                    8a:30:9f:b8:29:4f:63:9d:9c:b7:8a:ac:3f:2b:1a:
                    f5:d7:3f:27:eb:20:c1:00:47:fd:7b:ee:fd:a1:55:
                    2e:b1:85:29:9c:02:43:bb:c5:11:5b:78:31:96:11:
                    cf:15:75:f0:9f:2a:ed:ca:ad:cd:87:b3:42:d3:28:
                    94:f6:d5:e6:88:26:fa:2f:cc:d3:4a:70:fd:e4:88:
                    10:29:10:d6:2f:e8:61:6e:8e:38:77:85:97:5f:01:
                    a2:88:1a:f6:45:67:c6:fb:55:6e:1c:04:11:91:20:
                    31:7e:e9:b6:a3:24:91:7a:63:e9:79:e7:03:7b:89:
                    41:53:07:76:36:23:6d:cd:e3:ea:a2:b5:5b:bd:d0:
                    8c:d2:e3:7f:12:ab:e1:b7:99:0f:b7:07:65:e7:be:
                    25:a1:bc:ab:7c:c3:e2:1f:da:f2:3b:de:db:39:24:
                    f4:89:d9:13:55:af:6b:91:1d:20:8d:a4:44:76:e7:
                    e3:34:98:12:09:b4:bc:3e:51:6f:c9:24:1e:d1:d1:
                    3d:d9:68:60:3f:70:7b:0b:d5:4a:26:93:2e:f8:96:
                    6e:dc:2c:23:50:c5:bd:37:7c:f0:71:e2:8e:29:61:
                    78:ed:c3
                Exponent: 65537 (0x10001)
    Signature Algorithm: NULL
-----BEGIN CERTIFICATE-----
MIIEuDCCAqACFB/HNeqKW9cphIgrSfpNcfQGN41+MA0GCSqGSIb3DQEBCwUAMBkx
FzAVBgNVBAMMDmNhLmV4YW1wbGUuY29tMB4XDTI0MDczMTEyMDUzMloXDTI0MDgz
MDEyMDUzMlowGDEWMBQGA1UEAwwNYi5leGFtcGxlLmNvbTCCAiIwDQYJKoZIhvcN
AQEBBQADggIPADCCAgoCggIBALCG6TZPNfVPwejgO+Copw5E2h/IM5Lj44VD6GA8
F1JCs+sPfGdP/44Q9QPOPcs8jPRpflDYjfWU3Kxeti+pGLy1IemOyLxbezKx8aoF
qRoA21TuWsPOfrfrW09uKwDosjCDmCK8MPWWrXXxyrhAsK4YmxdUyQJcNaiwomHC
k0ZcXiy1toplNJkzg91RNyNDxn47aNf424CznK0Xfx/xSegL9AXoEfjPxwedbULb
7sKhQ3dKxr+6VpXOY2A08wFcigwglQkAF/7ciq8rRQbiHe3TFxlPsoKx2Pjg8hae
WyR66JBnFSiaL/nODsKxbFtQhSyn0hE93hxPNH+3WLuXlwYyzVsULsF/K+JzD8XI
rmbrZ662gzvVsVvrzKhCijCfuClPY52ct4qsPysa9dc/J+sgwQBH/Xvu/aFVLrGF
KZwCQ7vFEVt4MZYRzxV18J8q7cqtzYezQtMolPbV5ogm+i/M00pw/eSIECkQ1i/o
YW6OOHeFl18Booga9kVnxvtVbhwEEZEgMX7ptqMkkXpj6XnnA3uJQVMHdjYjbc3j
6qK1W73QjNLjfxKr4beZD7cHZee+JaG8q3zD4h/a8jve2zkk9InZE1Wva5EdII2k
RHbn4zSYEgm0vD5Rb8kkHtHRPdloYD9wewvVSiaTLviWbtwsI1DFvTd88HHijilh
eO3DAgMBAAEwDQYJKoZIhvcNAQELBQADggIBAD6UAeTISFRJCux3HaTawtlyGx9L
0EFh0t0kg8ey3rd8qQ3HIws9EF7Wtjk0zPInvtqkJLJwalpVLYzFUM9bM3M78IbS
ZTxjbdzPCVaS5rWGCI1exC/eWwadk/OP5JW56pEaBdDvXC+5ey0ziyqYHHdtDyqe
F8G4HEoMDBlB4744/EP23FxCzuXslTSOvTIAsNnnk0JaKr8cTZN04pwyu6WJobXZ
MILLb5VBqQMUnPuaMCAEmoT99iz06Yc4s3z/nTY1SzY15pRZiB7k9kUG3HEVNljS
XvnSrxjewiK0n22cISwVNIwsWRbRFB5f5G7mKpkCFqF2eFqC1FOb/Jla+Eep8Sld
AAY+Lhh1A+jPIgfLzYOCx/P61R4fVV9I8JA8mf4CvFrR/1BCn3PaML63Mcjnlcsc
Sy0mK6RYfdxujG1kvVGLCVERITtGVbOJSotUFcBtIfcLkztdsA84hs8mojgPnTp+
iFuSvThabqsJV7fahfjVNtOqltMH3oCvK6vcvNK4lEYB5waV/Phy9IWNZfW/jcKy
mzlnI8n//0Beg02SDPB1PIEO3y6Vs8i4PuAw0VZHjXjdaajthcItUEomzvrDgPe3
ZROTZ1t1cJvIKBVPCyjkYB7OHR8XzjAeZTz8zV67lmgAz3QFWJb9iXVJNEuuc3ta
ScNKQzM1HHrUS1u/
-----END CERTIFICATE-----
